
Allocating common symbols
Common symbol       size              file

listen              0x1               obj/keyboard.o
key                 0x2               obj/keyboard.o
keypress            0x1               obj/keyboard.o

Memory Configuration

Name             Origin             Length             Attributes
*default*        0x0000000000000000 0xffffffffffffffff

Linker script and memory map

                0x0000000000100000                . = 0x100000

.mbh            0x0000000000100000        0xc
 *(.mbh)
 .mbh           0x0000000000100000        0xc obj/boot.o

.rodata         0x0000000000100020      0xba0
 .rodata        0x0000000000100020       0x36 obj/anicafs.o
 .rodata        0x0000000000100056       0x30 obj/dma.o
 .rodata        0x0000000000100086       0x30 obj/errors.o
 *fill*         0x00000000001000b6        0x2 
 .rodata        0x00000000001000b8      0x201 obj/exceptions.o
 *fill*         0x00000000001002b9        0x3 
 .rodata        0x00000000001002bc       0xd9 obj/floppy.o
 .rodata        0x0000000000100395       0x18 obj/keyboard.o
 *fill*         0x00000000001003ad        0x3 
 .rodata        0x00000000001003b0      0x152 obj/lex-list.o
 *fill*         0x0000000000100502        0x2 
 .rodata        0x0000000000100504       0xef obj/lex-term.o
 *fill*         0x00000000001005f3        0x1 
 .rodata        0x00000000001005f4      0x236 obj/lex.o
 *fill*         0x000000000010082a        0x2 
 .rodata        0x000000000010082c       0xee obj/main.o
 *fill*         0x000000000010091a        0x2 
 .rodata        0x000000000010091c        0xb obj/mman.o
 *fill*         0x0000000000100927        0x1 
 .rodata        0x0000000000100928      0x16e obj/stdio.o
 *fill*         0x0000000000100a96        0xa 
 .rodata        0x0000000000100aa0       0x31 obj/string.o
 *fill*         0x0000000000100ad1        0x3 
 .rodata        0x0000000000100ad4        0x4 obj/time.o
                0x0000000000100ad4                bios_ticks
 .rodata        0x0000000000100ad8       0xe1 obj/util.o
 *fill*         0x0000000000100bb9        0x3 
 .rodata        0x0000000000100bbc        0x4 obj/vga.o

.eh_frame       0x0000000000100bc0     0x156c
 .eh_frame      0x0000000000100bc0      0x29c obj/anicafs.o
 .eh_frame      0x0000000000100e5c       0x40 obj/dma.o
                                         0x58 (size before relaxing)
 .eh_frame      0x0000000000100e9c       0x40 obj/errors.o
                                         0x58 (size before relaxing)
 .eh_frame      0x0000000000100edc       0x9c obj/exceptions.o
                                         0xb4 (size before relaxing)
 .eh_frame      0x0000000000100f78       0x88 obj/ext2.o
                                         0xa0 (size before relaxing)
 .eh_frame      0x0000000000101000      0x100 obj/filesystem.o
                                        0x118 (size before relaxing)
 .eh_frame      0x0000000000101100      0x224 obj/floppy.o
                                        0x23c (size before relaxing)
 .eh_frame      0x0000000000101324       0x80 obj/idt.o
                                         0x98 (size before relaxing)
 .eh_frame      0x00000000001013a4       0x40 obj/keyboard.o
                                         0x58 (size before relaxing)
 .eh_frame      0x00000000001013e4       0xc4 obj/lex-list.o
                                         0xdc (size before relaxing)
 .eh_frame      0x00000000001014a8       0xa0 obj/lex-term.o
                                         0xb8 (size before relaxing)
 .eh_frame      0x0000000000101548       0x9c obj/lex.o
                                         0xb4 (size before relaxing)
 .eh_frame      0x00000000001015e4       0x60 obj/main.o
                                         0x78 (size before relaxing)
 .eh_frame      0x0000000000101644       0x60 obj/math.o
                                         0x78 (size before relaxing)
 .eh_frame      0x00000000001016a4      0x1a4 obj/mman.o
                                        0x1bc (size before relaxing)
 .eh_frame      0x0000000000101848       0xe8 obj/pic.o
                                        0x100 (size before relaxing)
 .eh_frame      0x0000000000101930       0x40 obj/random.o
                                         0x58 (size before relaxing)
 .eh_frame      0x0000000000101970      0x120 obj/stack.o
                                        0x138 (size before relaxing)
 .eh_frame      0x0000000000101a90       0x88 obj/stdio.o
                                         0xa0 (size before relaxing)
 .eh_frame      0x0000000000101b18      0x26c obj/string.o
                                        0x284 (size before relaxing)
 .eh_frame      0x0000000000101d84       0x60 obj/time.o
                                         0x78 (size before relaxing)
 .eh_frame      0x0000000000101de4       0x80 obj/util.o
                                         0x98 (size before relaxing)
 .eh_frame      0x0000000000101e64      0x2c8 obj/vga.o
                                        0x2e0 (size before relaxing)

.text           0x0000000000102130     0x460b
 *(.text)
 .text          0x0000000000102130      0xc91 obj/anicafs.o
                0x0000000000102130                anica_read_superblock
                0x00000000001021b0                anica_write_superblock
                0x0000000000102248                anica_format_device
                0x00000000001022ec                anica_open_file
                0x0000000000102574                anica_read_file
                0x0000000000102622                anica_write_file
                0x0000000000102baf                anica_read_itable
                0x0000000000102c19                anica_write_itable
 *fill*         0x0000000000102dc1        0xf 
 .text          0x0000000000102dd0        0xc obj/boot.o
                0x0000000000102dd0                start
 .text          0x0000000000102ddc      0x1ba obj/dma.o
                0x0000000000102ddc                dma_xfer
 .text          0x0000000000102f96       0xad obj/errors.o
                0x0000000000103008                throw
 .text          0x0000000000103043      0x1d1 obj/exceptions.o
                0x0000000000103043                exceptions_init
                0x00000000001031af                catch_exception
                0x00000000001031f9                catch_zero_divide
 .text          0x0000000000103214      0x259 obj/ext2.o
                0x0000000000103214                ext2_read_superblock
                0x0000000000103290                ext2_read_table
                0x0000000000103397                ext2_block_groups
                0x00000000001033f4                ext2_read_block
 .text          0x000000000010346d      0x1d5 obj/filesystem.o
                0x000000000010346d                mount
                0x00000000001034c0                open
                0x0000000000103521                read
                0x000000000010354f                write
                0x0000000000103580                close
                0x0000000000103593                unmount
                0x00000000001035d2                ext2_read_sector
                0x000000000010360a                ext2_write_sector
 .text          0x0000000000103642      0x96f obj/floppy.o
                0x0000000000103642                floppy_write_block
                0x0000000000103673                floppy_read_block
                0x00000000001036a4                floppy_handler
                0x00000000001036bf                floppy_init
 .text          0x0000000000103fb1       0xdc obj/idt.o
                0x0000000000103fb1                idt_add_handler
                0x0000000000103fdb                idt_add_exception
 *fill*         0x000000000010408d        0x3 
 .text          0x0000000000104090       0x16 obj/interrupts.o
                0x0000000000104090                load_idt
                0x000000000010409a                keyboard_irq
                0x00000000001040a0                floppy_irq
 .text          0x00000000001040a6      0x14e obj/keyboard.o
                0x00000000001040a6                kb_init
                0x0000000000104108                keyboard_handler
 .text          0x00000000001041f4      0x1aa obj/lex-list.o
                0x00000000001041f4                lex_list
 .text          0x000000000010439e      0x1c0 obj/lex-term.o
                0x000000000010439e                lex_term
 .text          0x000000000010455e      0x303 obj/lex.o
                0x000000000010455e                lex_init
                0x00000000001045df                shell
 .text          0x0000000000104861      0x17e obj/main.o
                0x0000000000104861                init
                0x000000000010489f                avian_main
                0x000000000010496b                bootscreen
 .text          0x00000000001049df       0x92 obj/math.o
                0x00000000001049df                div
                0x0000000000104a10                ldiv
                0x0000000000104a41                pow
 .text          0x0000000000104a71      0x2fe obj/mman.o
                0x0000000000104a71                ptrsize
                0x0000000000104ab7                free
                0x0000000000104ae7                calloc
                0x0000000000104b27                malloc
                0x0000000000104bab                realloc
                0x0000000000104bfb                mem_blocks
                0x0000000000104c07                mem_used
                0x0000000000104c40                mem_free
 .text          0x0000000000104d6f      0x1ff obj/pic.o
                0x0000000000104d6f                pic_init
                0x0000000000104dd3                pic_send_eoi
                0x0000000000104e09                pic_enable_irq
                0x0000000000104e65                pic_disable_irq
                0x0000000000104f2f                pic_remap
 *fill*         0x0000000000104f6e        0x2 
 .text          0x0000000000104f70       0x10 obj/portio.o
                0x0000000000104f70                inportb
                0x0000000000104f76                outportb
 .text          0x0000000000104f80       0x5b obj/random.o
                0x0000000000104f80                rand
                0x0000000000104fce                srand
 .text          0x0000000000104fdb      0x193 obj/stack.o
                0x0000000000104fdb                stack_str
                0x0000000000104fe6                push_str
                0x0000000000105024                new_stack
                0x0000000000105063                delete_stack
                0x0000000000105084                push
                0x00000000001050d0                pop
                0x000000000010511c                peek
                0x000000000010514a                empty
                0x0000000000105159                full
 .text          0x000000000010516e      0x3b1 obj/stdio.o
                0x0000000000105201                printf
                0x00000000001053f8                scan
 .text          0x000000000010551f      0x819 obj/string.o
                0x000000000010551f                split
                0x0000000000105637                chomp
                0x0000000000105676                new_str
                0x0000000000105802                reverse
                0x0000000000105870                itoa
                0x00000000001059ff                atoi
                0x0000000000105a82                strcat
                0x0000000000105abe                strncat
                0x0000000000105b12                strchr
                0x0000000000105b3b                strcmp
                0x0000000000105b8d                strncmp
                0x0000000000105be7                strcpy
                0x0000000000105c15                strncpy
                0x0000000000105c4a                strlen
                0x0000000000105c7d                memset
                0x0000000000105cab                memcmp
                0x0000000000105cf9                memcpy
 *fill*         0x0000000000105d38        0x8 
 .text          0x0000000000105d40       0x1b obj/throw.o
                0x0000000000105d40                throw_exception
                0x0000000000105d50                throw_zero_divide
 .text          0x0000000000105d5b       0x78 obj/time.o
                0x0000000000105d5b                get_bios_ticks
                0x0000000000105d68                usleep
                0x0000000000105da4                sleep
 .text          0x0000000000105dd3      0x451 obj/util.o
                0x0000000000105dd3                types_test
                0x000000000010612b                colors_test
                0x00000000001061b8                trace_function
                0x00000000001061e3                notify_progress
 .text          0x0000000000106224      0x517 obj/vga.o
                0x0000000000106224                move_cursor
                0x00000000001062ac                hide_cursor
                0x00000000001062c8                vga_tabsize
                0x00000000001062ea                vga_increment
                0x0000000000106301                vga_decrement
                0x0000000000106318                vga_getcol
                0x0000000000106336                vga_getrow
                0x0000000000106352                vga_getloc
                0x0000000000106362                vga_setcolor
                0x000000000010637e                vga_newline
                0x000000000010639f                vga_creturn
                0x00000000001063bf                vga_tabchar
                0x0000000000106430                vga_movexy
                0x0000000000106473                vga_moveptr
                0x00000000001064a0                vga_char_at
                0x00000000001064d4                vga_clear
                0x0000000000106536                vga_clear_row
                0x000000000010658a                vga_write
                0x00000000001065c6                addch
                0x0000000000106610                vga_color
                0x0000000000106639                printxy
                0x000000000010669d                vga_scroll

.iplt           0x0000000000106740        0x0
 .iplt          0x0000000000000000        0x0 obj/anicafs.o

.rel.dyn        0x000000000010673c        0x0
 .rel.iplt      0x0000000000000000        0x0 obj/anicafs.o
 .rel.text      0x0000000000000000        0x0 obj/anicafs.o

.data           0x0000000000106740      0x17a
 *(.data)
 .data          0x0000000000106740        0x0 obj/anicafs.o
 .data          0x0000000000106740        0x0 obj/dma.o
 .data          0x0000000000106740        0x0 obj/errors.o
 .data          0x0000000000106740        0x0 obj/exceptions.o
 .data          0x0000000000106740        0x0 obj/ext2.o
 .data          0x0000000000106740        0x0 obj/filesystem.o
 .data          0x0000000000106740        0x0 obj/floppy.o
 .data          0x0000000000106740        0x0 obj/idt.o
 .data          0x0000000000106740      0x174 obj/keyboard.o
                0x0000000000106740                KEYMAP
 .data          0x00000000001068b4        0x0 obj/lex-list.o
 .data          0x00000000001068b4        0x0 obj/lex-term.o
 .data          0x00000000001068b4        0x0 obj/lex.o
 .data          0x00000000001068b4        0x0 obj/main.o
 .data          0x00000000001068b4        0x0 obj/math.o
 .data          0x00000000001068b4        0x0 obj/mman.o
 .data          0x00000000001068b4        0x0 obj/pic.o
 .data          0x00000000001068b4        0x4 obj/random.o
 .data          0x00000000001068b8        0x0 obj/stack.o
 .data          0x00000000001068b8        0x0 obj/stdio.o
 .data          0x00000000001068b8        0x1 obj/string.o
                0x00000000001068b8                itoa_long
 .data          0x00000000001068b9        0x0 obj/time.o
 .data          0x00000000001068b9        0x0 obj/util.o
 .data          0x00000000001068b9        0x1 obj/vga.o

.igot.plt       0x00000000001068bc        0x0
 .igot.plt      0x0000000000000000        0x0 obj/anicafs.o

.bss            0x00000000001068c0     0x2835
 *(.bss)
 .bss           0x00000000001068c0        0x0 obj/anicafs.o
 .bss           0x00000000001068c0     0x2000 obj/boot.o
 .bss           0x00000000001088c0        0x0 obj/dma.o
 .bss           0x00000000001088c0        0x0 obj/errors.o
 .bss           0x00000000001088c0        0x0 obj/exceptions.o
 .bss           0x00000000001088c0        0x0 obj/ext2.o
 .bss           0x00000000001088c0        0x0 obj/filesystem.o
 .bss           0x00000000001088c0        0xd obj/floppy.o
 *fill*         0x00000000001088cd       0x13 
 .bss           0x00000000001088e0      0x800 obj/idt.o
 .bss           0x00000000001090e0        0x2 obj/keyboard.o
 .bss           0x00000000001090e2        0x0 obj/lex-list.o
 .bss           0x00000000001090e2        0x0 obj/lex-term.o
 *fill*         0x00000000001090e2        0x2 
 .bss           0x00000000001090e4        0x8 obj/lex.o
 .bss           0x00000000001090ec        0x0 obj/main.o
 .bss           0x00000000001090ec        0x0 obj/math.o
 .bss           0x00000000001090ec        0x0 obj/mman.o
 .bss           0x00000000001090ec        0x0 obj/pic.o
 .bss           0x00000000001090ec        0x0 obj/random.o
 .bss           0x00000000001090ec        0x0 obj/stack.o
 .bss           0x00000000001090ec        0x0 obj/stdio.o
 .bss           0x00000000001090ec        0x4 obj/string.o
                0x00000000001090ec                itoa_case
 .bss           0x00000000001090f0        0x0 obj/time.o
 .bss           0x00000000001090f0        0x0 obj/util.o
 .bss           0x00000000001090f0        0x0 obj/vga.o
 COMMON         0x00000000001090f0        0x5 obj/keyboard.o
                0x00000000001090f0                listen
                0x00000000001090f2                key
                0x00000000001090f4                keypress
LOAD obj/anicafs.o
LOAD obj/boot.o
LOAD obj/dma.o
LOAD obj/errors.o
LOAD obj/exceptions.o
LOAD obj/ext2.o
LOAD obj/filesystem.o
LOAD obj/floppy.o
LOAD obj/idt.o
LOAD obj/interrupts.o
LOAD obj/keyboard.o
LOAD obj/lex-list.o
LOAD obj/lex-term.o
LOAD obj/lex.o
LOAD obj/main.o
LOAD obj/math.o
LOAD obj/mman.o
LOAD obj/pic.o
LOAD obj/portio.o
LOAD obj/random.o
LOAD obj/stack.o
LOAD obj/stdio.o
LOAD obj/string.o
LOAD obj/throw.o
LOAD obj/time.o
LOAD obj/util.o
LOAD obj/vga.o
OUTPUT(bin/kernel-alpha elf32-i386)

.comment        0x0000000000000000       0x2b
 .comment       0x0000000000000000       0x2b obj/anicafs.o
                                         0x2c (size before relaxing)
 .comment       0x0000000000000000       0x2c obj/dma.o
 .comment       0x0000000000000000       0x2c obj/errors.o
 .comment       0x0000000000000000       0x2c obj/exceptions.o
 .comment       0x0000000000000000       0x2c obj/ext2.o
 .comment       0x0000000000000000       0x2c obj/filesystem.o
 .comment       0x0000000000000000       0x2c obj/floppy.o
 .comment       0x0000000000000000       0x2c obj/idt.o
 .comment       0x0000000000000000       0x2c obj/keyboard.o
 .comment       0x0000000000000000       0x2c obj/lex-list.o
 .comment       0x0000000000000000       0x2c obj/lex-term.o
 .comment       0x0000000000000000       0x2c obj/lex.o
 .comment       0x0000000000000000       0x2c obj/main.o
 .comment       0x0000000000000000       0x2c obj/math.o
 .comment       0x0000000000000000       0x2c obj/mman.o
 .comment       0x0000000000000000       0x2c obj/pic.o
 .comment       0x0000000000000000       0x2c obj/random.o
 .comment       0x0000000000000000       0x2c obj/stack.o
 .comment       0x0000000000000000       0x2c obj/stdio.o
 .comment       0x0000000000000000       0x2c obj/string.o
 .comment       0x0000000000000000       0x2c obj/time.o
 .comment       0x0000000000000000       0x2c obj/util.o
 .comment       0x0000000000000000       0x2c obj/vga.o

.note.GNU-stack
                0x0000000000000000        0x0
 .note.GNU-stack
                0x0000000000000000        0x0 obj/anicafs.o
 .note.GNU-stack
                0x0000000000000000        0x0 obj/dma.o
 .note.GNU-stack
                0x0000000000000000        0x0 obj/errors.o
 .note.GNU-stack
                0x0000000000000000        0x0 obj/exceptions.o
 .note.GNU-stack
                0x0000000000000000        0x0 obj/ext2.o
 .note.GNU-stack
                0x0000000000000000        0x0 obj/filesystem.o
 .note.GNU-stack
                0x0000000000000000        0x0 obj/floppy.o
 .note.GNU-stack
                0x0000000000000000        0x0 obj/idt.o
 .note.GNU-stack
                0x0000000000000000        0x0 obj/keyboard.o
 .note.GNU-stack
                0x0000000000000000        0x0 obj/lex-list.o
 .note.GNU-stack
                0x0000000000000000        0x0 obj/lex-term.o
 .note.GNU-stack
                0x0000000000000000        0x0 obj/lex.o
 .note.GNU-stack
                0x0000000000000000        0x0 obj/main.o
 .note.GNU-stack
                0x0000000000000000        0x0 obj/math.o
 .note.GNU-stack
                0x0000000000000000        0x0 obj/mman.o
 .note.GNU-stack
                0x0000000000000000        0x0 obj/pic.o
 .note.GNU-stack
                0x0000000000000000        0x0 obj/random.o
 .note.GNU-stack
                0x0000000000000000        0x0 obj/stack.o
 .note.GNU-stack
                0x0000000000000000        0x0 obj/stdio.o
 .note.GNU-stack
                0x0000000000000000        0x0 obj/string.o
 .note.GNU-stack
                0x0000000000000000        0x0 obj/time.o
 .note.GNU-stack
                0x0000000000000000        0x0 obj/util.o
 .note.GNU-stack
                0x0000000000000000        0x0 obj/vga.o
